target datalayout = "e-m:e-p270:32:32-p271:32:32-p272:64:64-i64:64-i128:128-f80:128-n8:16:32:64-S128"
target triple = "x86_64-pc-linux-gnu"

%struct.rb_data_type_struct = type { ptr, %struct.anon, ptr, ptr, i64 }
%struct.anon = type { ptr, ptr, ptr, ptr, [1 x ptr] }
%struct.v3_ext_ctx = type { i32, ptr, ptr, ptr, ptr, ptr, ptr, ptr }

@rb_eRuntimeError = external global i64, align 8
@ossl_x509extfactory_type = internal constant %struct.rb_data_type_struct { ptr @.str.28, %struct.anon { ptr null, ptr @ossl_x509extfactory_free, ptr null, ptr null, [1 x ptr] zeroinitializer }, ptr null, ptr null, i64 33 }, align 8
@.str.30 = private unnamed_addr constant [24 x i8] c"CTX wasn't initialized!\00", align 1
@.str.31 = private unnamed_addr constant [20 x i8] c"@issuer_certificate\00", align 1

; Function Attrs: nounwind sspstrong uwtable
define internal i64 @ossl_x509extfactory_set_issuer_cert(i64 noundef %0, i64 noundef %1) #0 {
  %3 = alloca i64, align 8
  %4 = alloca i64, align 8
  %5 = alloca ptr, align 8
  store i64 %0, ptr %3, align 8, !tbaa !11
  store i64 %1, ptr %4, align 8, !tbaa !11
  call void @llvm.lifetime.start.p0(i64 8, ptr %5) #17
  br label %6

6:                                                ; preds = %2
  %7 = load i64, ptr %3, align 8, !tbaa !11
  %8 = call ptr @rb_check_typeddata(i64 noundef %7, ptr noundef @ossl_x509extfactory_type)
  store ptr %8, ptr %5, align 8, !tbaa !17
  %9 = load ptr, ptr %5, align 8, !tbaa !17
  %10 = icmp ne ptr %9, null
  br i1 %10, label %13, label %11

11:                                               ; preds = %6
  %12 = load i64, ptr @rb_eRuntimeError, align 8, !tbaa !11
  call void (i64, ptr, ...) @ossl_raise(i64 noundef %12, ptr noundef @.str.30) #18
  unreachable

13:                                               ; preds = %6
  br label %14

14:                                               ; preds = %13
  br label %15

15:                                               ; preds = %14
  %16 = load i64, ptr %3, align 8, !tbaa !11
  %17 = load i64, ptr %4, align 8, !tbaa !11
  %18 = call i64 @rb_iv_set(i64 noundef %16, ptr noundef @.str.31, i64 noundef %17)
  %19 = load i64, ptr %4, align 8, !tbaa !11
  %20 = call ptr @GetX509CertPtr(i64 noundef %19)
  %21 = load ptr, ptr %5, align 8, !tbaa !17
  %22 = getelementptr inbounds nuw %struct.v3_ext_ctx, ptr %21, i32 0, i32 1
  store ptr %20, ptr %22, align 8, !tbaa !23
  %23 = load i64, ptr %4, align 8, !tbaa !11
  call void @llvm.lifetime.end.p0(i64 8, ptr %5) #17
  ret i64 %23
}